; Function Attrs: nounwind uwtable
define internal fastcc range(i64 -1, -9223372036854775808) i64 @_Py_write_impl(i32 noundef %0, ptr noundef readonly captures(none) %1, i64 noundef %2, i32 noundef range(i32 0, 2) %3) unnamed_addr #0 {
  %spec.store.select = tail call i64 @llvm.umin.i64(i64 %2, i64 9223372036854775807)
  %.not = icmp eq i32 %3, 0
  br i1 %.not, label %.preheader, label %.preheader33

.preheader:                                       ; preds = %4
  %5 = tail call ptr @__errno_location() #19
  br label %14

.preheader33:                                     ; preds = %4, %12
  %6 = tail call ptr @PyEval_SaveThread() #17
  %7 = tail call ptr @__errno_location() #19
  store i32 0, ptr %7, align 4, !tbaa !180
  %8 = tail call i64 @write(i32 noundef %0, ptr noundef %1, i64 noundef %spec.store.select) #17
  %9 = load i32, ptr %7, align 4, !tbaa !180
  tail call void @PyEval_RestoreThread(ptr noundef %6) #17
  %10 = icmp slt i64 %8, 0
  %11 = icmp eq i32 %9, 4
  %or.cond = select i1 %10, i1 %11, i1 false
  br i1 %or.cond, label %12, label %.loopexit

12:                                               ; preds = %.preheader33
  %13 = tail call i32 @PyErr_CheckSignals() #17
  %.not25 = icmp eq i32 %13, 0
  br i1 %.not25, label %.preheader33, label %.critedge, !llvm.loop !192

14:                                               ; preds = %.preheader, %14
  store i32 0, ptr %5, align 4, !tbaa !180
  %15 = tail call i64 @write(i32 noundef %0, ptr noundef %1, i64 noundef %spec.store.select) #17
  %16 = load i32, ptr %5, align 4, !tbaa !180
  %17 = icmp slt i64 %15, 0
  %18 = icmp eq i32 %16, 4
  %19 = select i1 %17, i1 %18, i1 false
  br i1 %19, label %14, label %.loopexit, !llvm.loop !193

.critedge:                                        ; preds = %12
  store i32 4, ptr %7, align 4, !tbaa !180
  br label %27

.loopexit:                                        ; preds = %.preheader33, %14
  %.022.ph = phi i64 [ %15, %14 ], [ %8, %.preheader33 ]
  %.021.ph = phi i32 [ %16, %14 ], [ %9, %.preheader33 ]
  %20 = icmp slt i64 %.022.ph, 0
  br i1 %20, label %21, label %27

21:                                               ; preds = %.loopexit
  br i1 %.not, label %25, label %22

22:                                               ; preds = %21
  %23 = load ptr, ptr @PyExc_OSError, align 8, !tbaa !188
  %24 = tail call ptr @PyErr_SetFromErrno(ptr noundef %23) #17
  br label %25

25:                                               ; preds = %22, %21
  %26 = tail call ptr @__errno_location() #19
  store i32 %.021.ph, ptr %26, align 4, !tbaa !180
  br label %27

27:                                               ; preds = %.loopexit, %25, %.critedge
  %.0 = phi i64 [ -1, %.critedge ], [ -1, %25 ], [ %.022.ph, %.loopexit ]
  ret i64 %.0
}